EXPORTS
	_ZN3Mws6CHttpd10ReConnectLEv @ 1 NONAME
	_ZN3Mws6CHttpd4NewLEi @ 2 NONAME
	_ZN3Mws6CHttpd5CloseEv @ 3 NONAME
	_ZN3Mws6CHttpd5NewLCEi @ 4 NONAME
	_ZN3Mws6CHttpd6DetachEPNS_14MHttpdObserverE @ 5 NONAME
	_ZN3Mws6CHttpd7AttachLEPNS_14MHttpdObserverE @ 6 NONAME
	_ZN3Mws6CHttpd8ConnectLEv @ 7 NONAME
	_ZN3Mws6CHttpdD0Ev @ 8 NONAME
	_ZN3Mws6CHttpdD1Ev @ 9 NONAME
	_ZN3Mws6CHttpdD2Ev @ 10 NONAME
	_ZN3Mws6RHttpd5CloseEv @ 11 NONAME
	_ZN3Mws6RHttpd7ConnectEv @ 12 NONAME
	_ZN3Mws6RHttpdC1Ev @ 13 NONAME
	_ZN3Mws6RHttpdC2Ev @ 14 NONAME
	_ZNK3Mws6CHttpd5StopLEi @ 15 NONAME
	_ZNK3Mws6CHttpd6StartLERKNS_15THttpdSettings1E @ 16 NONAME
	_ZNK3Mws6CHttpd6StateLEv @ 17 NONAME
	_ZNK3Mws6CHttpd7VersionEv @ 18 NONAME
	_ZNK3Mws6CHttpd8RestartLEi @ 19 NONAME
	_ZNK3Mws6CHttpd9ConnectedEv @ 20 NONAME
	_ZNK3Mws6RHttpd10StopServerEi @ 21 NONAME
	_ZNK3Mws6RHttpd11StartServerERKNS_15THttpdSettings1E @ 22 NONAME
	_ZNK3Mws6RHttpd13RestartServerEi @ 23 NONAME
	_ZNK3Mws6RHttpd14GetStateCancelEv @ 24 NONAME
	_ZNK3Mws6RHttpd7VersionEv @ 25 NONAME
	_ZNK3Mws6RHttpd8GetStateEP5TPckgINS_11THttpdStateEER14TRequestStatus @ 26 NONAME
	_ZNK3Mws6RHttpd8GetStateERNS_11THttpdStateE @ 27 NONAME
	_ZTIN3Mws6CHttpdE @ 28 NONAME ; #<TI>#
	_ZTVN3Mws6CHttpdE @ 29 NONAME ; #<VT>#
	_ZNK3Mws6CHttpd12SetSettingsLERKNS_15THttpdSettings1E @ 30 NONAME
	_ZNK3Mws6CHttpd16CurrentSettingsLEv @ 31 NONAME
	_ZNK3Mws6CHttpd6StartLERK7TDesC16RKNS_15THttpdSettings1E @ 32 NONAME
	_ZNK3Mws6CHttpd9SettingsLEv @ 33 NONAME
	_ZNK3Mws6RHttpd11GetSettingsERNS_15THttpdSettings1E @ 34 NONAME
	_ZNK3Mws6RHttpd11SetSettingsERKNS_15THttpdSettings1E @ 35 NONAME
	_ZNK3Mws6RHttpd11StartServerERK7TDesC16RKNS_15THttpdSettings1E @ 36 NONAME
	_ZNK3Mws6RHttpd18GetCurrentSettingsERNS_15THttpdSettings1E @ 37 NONAME

